; Function Attrs: nofree nounwind null_pointer_is_valid sspstrong memory(read, inaccessiblemem: none) uwtable
define noundef ptr @json_get_array(ptr noundef readonly captures(none) %0, ptr noundef readonly %1, ptr noundef readonly captures(none) %2) local_unnamed_addr #5 {
  %4 = getelementptr inbounds nuw i8, ptr %1, i64 12
  %5 = load i32, ptr %4, align 4
  %6 = icmp sgt i32 %5, 0
  br i1 %6, label %.lr.ph.preheader, label %.split.loop.exit

.lr.ph.preheader:                                 ; preds = %3
  %7 = getelementptr i8, ptr %1, i64 16
  br label %.lr.ph

.lr.ph:                                           ; preds = %.lr.ph.preheader, %31
  %.022 = phi ptr [ %32, %31 ], [ %7, %.lr.ph.preheader ]
  %.01721 = phi i32 [ %33, %31 ], [ 0, %.lr.ph.preheader ]
  %8 = load i32, ptr %.022, align 4
  %9 = icmp eq i32 %8, 3
  br i1 %9, label %10, label %31

10:                                               ; preds = %.lr.ph
  %11 = getelementptr inbounds nuw i8, ptr %.022, i64 4
  %12 = load i32, ptr %11, align 4
  %13 = sext i32 %12 to i64
  %14 = getelementptr i8, ptr %0, i64 %13
  %15 = getelementptr inbounds nuw i8, ptr %.022, i64 8
  %16 = load i32, ptr %15, align 4
  %17 = sub i32 %16, %12
  %18 = sext i32 %17 to i64
  %19 = tail call i32 @strncmp(ptr noundef %14, ptr noundef %2, i64 noundef %18) #12
  %.not = icmp eq i32 %19, 0
  br i1 %.not, label %20, label %31

20:                                               ; preds = %10
  %21 = tail call i64 @strlen(ptr noundef %2) #12
  %22 = icmp eq i64 %21, %18
  br i1 %22, label %23, label %31

23:                                               ; preds = %20
  %24 = getelementptr inbounds nuw i8, ptr %.022, i64 12
  %25 = load i32, ptr %24, align 4
  %26 = icmp eq i32 %25, 1
  br i1 %26, label %27, label %31

27:                                               ; preds = %23
  %28 = getelementptr i8, ptr %.022, i64 16
  %29 = load i32, ptr %28, align 4
  %30 = icmp eq i32 %29, 2
  br i1 %30, label %.split.loop.exit.loopexit.split.loop.exit, label %31

31:                                               ; preds = %27, %23, %20, %10, %.lr.ph
  %32 = tail call fastcc ptr @json_get_next_object(ptr noundef %.022)
  %33 = add nuw nsw i32 %.01721, 1
  %exitcond.not = icmp eq i32 %33, %5
  br i1 %exitcond.not, label %.split.loop.exit, label %.lr.ph, !llvm.loop !9

.split.loop.exit.loopexit.split.loop.exit:        ; preds = %27
  %34 = getelementptr i8, ptr %.022, i64 16
  br label %.split.loop.exit

.split.loop.exit:                                 ; preds = %31, %.split.loop.exit.loopexit.split.loop.exit, %3
  %.018 = phi ptr [ null, %3 ], [ %34, %.split.loop.exit.loopexit.split.loop.exit ], [ null, %31 ]
  ret ptr %.018
}